(dp1
S'session'
p2
(dp3
S'navbar'
p4
(lp5
(S'Home'
S'/'
tp6
a(S'Enter a new case'
S'/newcase'
tp7
a(S'Search for a new case'
S'/searchcase'
tp8
a(S'Register'
p9
S'/register'
p10
tp11
asS'_accessed_time'
p12
F1351921851.019985
sS'_creation_time'
p13
F1351921822.5873189
ss.