(dp1
S'session'
p2
(dp3
S'username'
p4
S'ml'
p5
sS'navbar'
p6
(lp7
(S'Home'
S'/'
tp8
a(S'Enter a new case'
S'/newcase'
tp9
a(S'Search for a new case'
S'/searchcase'
tp10
a(S'Register'
S'/register'
tp11
asS'_accessed_time'
p12
F1352355241.381994
sS'_creation_time'
p13
F1352353917.0857811
ss.